; Function Attrs: mustprogress nofree norecurse nosync nounwind memory(argmem: readwrite) uwtable
define hidden noundef zeroext i1 @_Z3incjPj(i32 noundef %0, ptr noundef captures(none) %1) local_unnamed_addr #6 {
  %.not1011.not = icmp eq i32 %0, 0
  br i1 %.not1011.not, label %._crit_edge, label %.lr.ph.preheader

.lr.ph.preheader:                                 ; preds = %2
  %wide.trip.count = zext i32 %0 to i64
  br label %.lr.ph

.lr.ph:                                           ; preds = %.lr.ph, %.lr.ph.preheader
  %indvars.iv = phi i64 [ 0, %.lr.ph.preheader ], [ %indvars.iv.next, %.lr.ph ]
  %3 = getelementptr inbounds nuw i32, ptr %1, i64 %indvars.iv
  %4 = load i32, ptr %3, align 4, !tbaa !3
  %5 = add i32 %4, 1
  store i32 %5, ptr %3, align 4, !tbaa !3
  %.not.not = icmp ne i32 %5, 0
  %indvars.iv.next = add nuw nsw i64 %indvars.iv, 1
  %exitcond.not = icmp eq i64 %indvars.iv.next, %wide.trip.count
  %or.cond = select i1 %.not.not, i1 true, i1 %exitcond.not
  br i1 %or.cond, label %._crit_edge, label %.lr.ph, !llvm.loop !23

._crit_edge:                                      ; preds = %.lr.ph, %2
  %.not10.lcssa = phi i1 [ false, %2 ], [ %.not.not, %.lr.ph ]
  ret i1 %.not10.lcssa
}